; Function Attrs: nounwind uwtable
define noalias ptr @OSSL_STORE_INFO_new_PARAMS(ptr noundef %0) local_unnamed_addr #0 {
  %2 = tail call noalias ptr @CRYPTO_zalloc(i64 noundef 24, ptr noundef nonnull @.str.2, i32 noundef 609) #9
  %3 = icmp eq ptr %2, null
  br i1 %3, label %5, label %OSSL_STORE_INFO_new.exit

OSSL_STORE_INFO_new.exit:                         ; preds = %1
  store i32 2, ptr %2, align 8, !tbaa !68
  %4 = getelementptr inbounds nuw i8, ptr %2, i64 8
  store ptr %0, ptr %4, align 8, !tbaa !8
  br label %6

5:                                                ; preds = %1
  tail call void @ERR_new() #9
  tail call void @ERR_set_debug(ptr noundef nonnull @.str.2, i32 noundef 650, ptr noundef nonnull @__func__.OSSL_STORE_INFO_new_PARAMS) #9
  tail call void (i32, i32, ptr, ...) @ERR_set_error(i32 noundef 44, i32 noundef 524332, ptr noundef null) #9
  br label %6

6:                                                ; preds = %OSSL_STORE_INFO_new.exit, %5
  ret ptr %2
}